; Function Attrs: nounwind uwtable
define dso_local noundef i32 @die_message(ptr noundef %0, ...) local_unnamed_addr #6 {
  %2 = alloca [1 x %struct.__va_list_tag], align 16
  call void @llvm.lifetime.start.p0(i64 24, ptr nonnull %2) #17
  call void @llvm.va_start.p0(ptr nonnull %2)
  call void @trace2_cmd_error_va_fl(ptr noundef nonnull @.str.3, i32 noundef 70, ptr noundef %0, ptr noundef nonnull %2) #17
  %3 = load i32, ptr @git_gettext_enabled, align 4, !tbaa !12
  %.not4.i.i = icmp eq i32 %3, 0
  br i1 %.not4.i.i, label %die_message_builtin.exit, label %4

4:                                                ; preds = %1
  %5 = call ptr @dcgettext(ptr noundef null, ptr noundef nonnull @.str.5, i32 noundef 5) #17
  br label %die_message_builtin.exit

die_message_builtin.exit:                         ; preds = %1, %4
  %.0.i.i = phi ptr [ %5, %4 ], [ @.str.5, %1 ]
  %6 = load ptr, ptr @stderr, align 8, !tbaa !10
  call fastcc void @vfreportf(ptr noundef %6, ptr noundef %.0.i.i, ptr noundef %0, ptr noundef nonnull %2)
  call void @llvm.va_end.p0(ptr nonnull %2)
  call void @llvm.lifetime.end.p0(i64 24, ptr nonnull %2) #17
  ret i32 128
}